target datalayout = "e-m:e-p270:32:32-p271:32:32-p272:64:64-i64:64-i128:128-f80:128-n8:16:32:64-S128"
target triple = "x86_64-unknown-linux-gnu"

%"class.icu_75::UObject" = type { ptr }
%"class.icu_75::Normalizer2Impl" = type { %"class.icu_75::UObject", i16, i16, i16, i16, i16, i16, i16, i16, i16, i16, i16, i16, ptr, ptr, ptr, ptr, %"struct.icu_75::UInitOnce", ptr }
%"struct.icu_75::UInitOnce" = type { %"struct.std::atomic", i32 }
%"struct.std::atomic" = type { %"struct.std::__atomic_base" }
%"struct.std::__atomic_base" = type { i32 }

@_ZTVN6icu_7515Normalizer2ImplE = unnamed_addr constant { [5 x ptr] } { [5 x ptr] [ptr null, ptr @_ZTIN6icu_7515Normalizer2ImplE, ptr @_ZN6icu_7515Normalizer2ImplD1Ev, ptr @_ZN6icu_7515Normalizer2ImplD0Ev, ptr @_ZNK6icu_757UObject17getDynamicClassIDEv] }, align 8
@_ZN6icu_7513CanonIterDataD1Ev = unnamed_addr alias void (ptr), ptr @_ZN6icu_7513CanonIterDataD2Ev

; Function Attrs: mustprogress nounwind uwtable
define void @_ZN6icu_7515Normalizer2ImplD2Ev(ptr noundef nonnull align 8 dereferenceable(80) %this) unnamed_addr #2 align 2 {
entry:
  %this.addr = alloca ptr, align 8
  store ptr %this, ptr %this.addr, align 8
  %this1 = load ptr, ptr %this.addr, align 8
  store ptr getelementptr inbounds ({ [5 x ptr] }, ptr @_ZTVN6icu_7515Normalizer2ImplE, i32 0, i32 0, i32 2), ptr %this1, align 8
  %fCanonIterData = getelementptr inbounds %"class.icu_75::Normalizer2Impl", ptr %this1, i32 0, i32 18
  %0 = load ptr, ptr %fCanonIterData, align 8
  %isnull = icmp eq ptr %0, null
  br i1 %isnull, label %delete.end, label %delete.notnull

delete.notnull:                                   ; preds = %entry
  call void @_ZN6icu_7513CanonIterDataD1Ev(ptr noundef nonnull align 8 dereferenceable(56) %0) #7
  call void @_ZN6icu_757UMemorydlEPv(ptr noundef %0) #7
  br label %delete.end

delete.end:                                       ; preds = %delete.notnull, %entry
  call void @_ZN6icu_757UObjectD2Ev(ptr noundef nonnull align 8 dereferenceable(8) %this1) #7
  ret void
}