; Function Attrs: mustprogress nounwind uwtable
define void @_ZN6icu_7515Normalizer2ImplD2Ev(ptr noundef nonnull align 8 dereferenceable(80) %this) unnamed_addr #4 align 2 {
entry:
  store ptr getelementptr inbounds ({ [5 x ptr] }, ptr @_ZTVN6icu_7515Normalizer2ImplE, i64 0, i32 0, i64 2), ptr %this, align 8
  %fCanonIterData = getelementptr inbounds i8, ptr %this, i64 72
  %0 = load ptr, ptr %fCanonIterData, align 8
  %isnull = icmp eq ptr %0, null
  br i1 %isnull, label %delete.end, label %delete.notnull

delete.notnull:                                   ; preds = %entry
  tail call void @_ZN6icu_7513CanonIterDataD1Ev(ptr noundef nonnull align 8 dereferenceable(56) %0) #15
  tail call void @_ZN6icu_757UMemorydlEPv(ptr noundef nonnull %0) #15
  br label %delete.end

delete.end:                                       ; preds = %delete.notnull, %entry
  tail call void @_ZN6icu_757UObjectD2Ev(ptr noundef nonnull align 8 dereferenceable(8) %this) #15
  ret void
}